; Function Attrs: mustprogress nounwind uwtable
define dso_local noundef zeroext i1 @_ZN4llvm8LLParser27parseOptionalCommaAddrSpaceERjRNS_5SMLocERb(ptr noundef nonnull align 8 dereferenceable(1768) %0, ptr nocapture noundef nonnull align 4 dereferenceable(4) %1, ptr nocapture noundef nonnull writeonly align 8 dereferenceable(8) %2, ptr nocapture noundef nonnull writeonly align 1 dereferenceable(1) %3) local_unnamed_addr #0 align 2 {
  %5 = alloca %"class.llvm::Twine", align 8
  store i8 0, ptr %3, align 1
  %6 = getelementptr inbounds i8, ptr %0, i64 232
  %7 = getelementptr inbounds nuw i8, ptr %0, i64 176
  %8 = getelementptr inbounds i8, ptr %0, i64 224
  br label %9

9:                                                ; preds = %22, %4
  %10 = load i32, ptr %6, align 8
  %.not.i = icmp eq i32 %10, 4
  br i1 %.not.i, label %11, label %_ZN4llvm8LLParser12EatIfPresentENS_5lltok4KindE.exit

11:                                               ; preds = %9
  %12 = tail call noundef i32 @_ZN4llvm7LLLexer8LexTokenEv(ptr noundef nonnull align 8 dereferenceable(161) %7) #25
  store i32 %12, ptr %6, align 8
  %13 = icmp eq i32 %12, 496
  br i1 %13, label %14, label %15

14:                                               ; preds = %11
  store i8 1, ptr %3, align 1
  br label %_ZN4llvm8LLParser12EatIfPresentENS_5lltok4KindE.exit

15:                                               ; preds = %11
  %16 = load ptr, ptr %8, align 8
  store ptr %16, ptr %2, align 8
  %17 = load i32, ptr %6, align 8
  %.not = icmp eq i32 %17, 93
  br i1 %.not, label %22, label %18

18:                                               ; preds = %15
  %19 = getelementptr inbounds nuw i8, ptr %5, i64 32
  %20 = getelementptr inbounds nuw i8, ptr %5, i64 33
  store i8 1, ptr %20, align 1
  store ptr @.str.116, ptr %5, align 8
  store i8 3, ptr %19, align 8
  %21 = call noundef zeroext i1 @_ZNK4llvm7LLLexer5ErrorENS_5SMLocERKNS_5TwineE(ptr noundef nonnull align 8 dereferenceable(161) %7, ptr %16, ptr noundef nonnull align 8 dereferenceable(34) %5) #25
  br label %_ZN4llvm8LLParser12EatIfPresentENS_5lltok4KindE.exit

22:                                               ; preds = %15
  %23 = tail call noundef zeroext i1 @_ZN4llvm8LLParser22parseOptionalAddrSpaceERjj(ptr noundef nonnull align 8 dereferenceable(1768) %0, ptr noundef nonnull align 4 dereferenceable(4) %1, i32 noundef 0)
  br i1 %23, label %_ZN4llvm8LLParser12EatIfPresentENS_5lltok4KindE.exit, label %9, !llvm.loop !354

_ZN4llvm8LLParser12EatIfPresentENS_5lltok4KindE.exit: ; preds = %9, %22, %18, %14
  %.0 = phi i1 [ false, %14 ], [ %21, %18 ], [ %.not.i, %22 ], [ %.not.i, %9 ]
  ret i1 %.0
}